; Function Attrs: mustprogress uwtable
define void @_Z14init_gtc_stateP7t_stateiii(ptr noundef %0, i32 noundef %1, i32 noundef %2, i32 noundef %3) local_unnamed_addr #4 personality ptr @__gxx_personality_v0 {
  %5 = alloca double, align 8
  %6 = alloca double, align 8
  %7 = alloca double, align 8
  %8 = alloca double, align 8
  %9 = alloca double, align 8
  %10 = getelementptr inbounds i8, ptr %0, i64 8
  store i32 %1, ptr %10, align 8
  %11 = getelementptr inbounds i8, ptr %0, i64 12
  store i32 %2, ptr %11, align 4
  %12 = getelementptr inbounds i8, ptr %0, i64 16
  store i32 %3, ptr %12, align 8
  %13 = getelementptr inbounds i8, ptr %0, i64 272
  %14 = mul nsw i32 %3, %1
  %15 = sext i32 %14 to i64
  store double 0.000000e+00, ptr %5, align 8
  %16 = getelementptr inbounds i8, ptr %0, i64 280
  %17 = load ptr, ptr %16, align 8
  %18 = load ptr, ptr %13, align 8
  %19 = ptrtoint ptr %17 to i64
  %20 = ptrtoint ptr %18 to i64
  %21 = sub i64 %19, %20
  %22 = ashr exact i64 %21, 3
  %23 = icmp ult i64 %22, %15
  br i1 %23, label %24, label %26

24:                                               ; preds = %4
  %25 = sub nsw i64 %15, %22
  call void @_ZNSt6vectorIdSaIdEE14_M_fill_insertEN9__gnu_cxx17__normal_iteratorIPdS1_EEmRKd(ptr noundef nonnull align 8 dereferenceable(24) %13, ptr %17, i64 noundef %25, ptr noundef nonnull align 8 dereferenceable(8) %5)
  %.pre = load i32, ptr %12, align 8
  %.pre28 = load i32, ptr %10, align 8
  %.pre31 = mul nsw i32 %.pre28, %.pre
  %.pre32 = sext i32 %.pre31 to i64
  br label %_ZNSt6vectorIdSaIdEE6resizeEmRKd.exit

26:                                               ; preds = %4
  %27 = icmp ugt i64 %22, %15
  br i1 %27, label %28, label %_ZNSt6vectorIdSaIdEE6resizeEmRKd.exit

28:                                               ; preds = %26
  %29 = getelementptr inbounds double, ptr %18, i64 %15
  %.not.i.i = icmp eq ptr %17, %29
  br i1 %.not.i.i, label %_ZNSt6vectorIdSaIdEE6resizeEmRKd.exit, label %30

30:                                               ; preds = %28
  store ptr %29, ptr %16, align 8
  br label %_ZNSt6vectorIdSaIdEE6resizeEmRKd.exit

_ZNSt6vectorIdSaIdEE6resizeEmRKd.exit:            ; preds = %24, %26, %28, %30
  %.pre-phi33 = phi i64 [ %.pre32, %24 ], [ %15, %26 ], [ %15, %28 ], [ %15, %30 ]
  %31 = phi i32 [ %.pre28, %24 ], [ %1, %26 ], [ %1, %28 ], [ %1, %30 ]
  %32 = getelementptr inbounds i8, ptr %0, i64 296
  store double 0.000000e+00, ptr %6, align 8
  %33 = getelementptr inbounds i8, ptr %0, i64 304
  %34 = load ptr, ptr %33, align 8
  %35 = load ptr, ptr %32, align 8
  %36 = ptrtoint ptr %34 to i64
  %37 = ptrtoint ptr %35 to i64
  %38 = sub i64 %36, %37
  %39 = ashr exact i64 %38, 3
  %40 = icmp ult i64 %39, %.pre-phi33
  br i1 %40, label %41, label %43

41:                                               ; preds = %_ZNSt6vectorIdSaIdEE6resizeEmRKd.exit
  %42 = sub nsw i64 %.pre-phi33, %39
  call void @_ZNSt6vectorIdSaIdEE14_M_fill_insertEN9__gnu_cxx17__normal_iteratorIPdS1_EEmRKd(ptr noundef nonnull align 8 dereferenceable(24) %32, ptr %34, i64 noundef %42, ptr noundef nonnull align 8 dereferenceable(8) %6)
  %.pre29 = load i32, ptr %10, align 8
  br label %_ZNSt6vectorIdSaIdEE6resizeEmRKd.exit21

43:                                               ; preds = %_ZNSt6vectorIdSaIdEE6resizeEmRKd.exit
  %44 = icmp ugt i64 %39, %.pre-phi33
  br i1 %44, label %45, label %_ZNSt6vectorIdSaIdEE6resizeEmRKd.exit21

45:                                               ; preds = %43
  %46 = getelementptr inbounds double, ptr %35, i64 %.pre-phi33
  %.not.i.i20 = icmp eq ptr %34, %46
  br i1 %.not.i.i20, label %_ZNSt6vectorIdSaIdEE6resizeEmRKd.exit21, label %47

47:                                               ; preds = %45
  store ptr %46, ptr %33, align 8
  br label %_ZNSt6vectorIdSaIdEE6resizeEmRKd.exit21

_ZNSt6vectorIdSaIdEE6resizeEmRKd.exit21:          ; preds = %41, %43, %45, %47
  %48 = phi i32 [ %.pre29, %41 ], [ %31, %43 ], [ %31, %45 ], [ %31, %47 ]
  %49 = getelementptr inbounds i8, ptr %0, i64 368
  %50 = sext i32 %48 to i64
  store double 0.000000e+00, ptr %7, align 8
  %51 = getelementptr inbounds i8, ptr %0, i64 376
  %52 = load ptr, ptr %51, align 8
  %53 = load ptr, ptr %49, align 8
  %54 = ptrtoint ptr %52 to i64
  %55 = ptrtoint ptr %53 to i64
  %56 = sub i64 %54, %55
  %57 = ashr exact i64 %56, 3
  %58 = icmp ult i64 %57, %50
  br i1 %58, label %59, label %61

59:                                               ; preds = %_ZNSt6vectorIdSaIdEE6resizeEmRKd.exit21
  %60 = sub nsw i64 %50, %57
  call void @_ZNSt6vectorIdSaIdEE14_M_fill_insertEN9__gnu_cxx17__normal_iteratorIPdS1_EEmRKd(ptr noundef nonnull align 8 dereferenceable(24) %49, ptr %52, i64 noundef %60, ptr noundef nonnull align 8 dereferenceable(8) %7)
  br label %_ZNSt6vectorIdSaIdEE6resizeEmRKd.exit23

61:                                               ; preds = %_ZNSt6vectorIdSaIdEE6resizeEmRKd.exit21
  %62 = icmp ugt i64 %57, %50
  br i1 %62, label %63, label %_ZNSt6vectorIdSaIdEE6resizeEmRKd.exit23

63:                                               ; preds = %61
  %64 = getelementptr inbounds double, ptr %53, i64 %50
  %.not.i.i22 = icmp eq ptr %52, %64
  br i1 %.not.i.i22, label %_ZNSt6vectorIdSaIdEE6resizeEmRKd.exit23, label %65

65:                                               ; preds = %63
  store ptr %64, ptr %51, align 8
  br label %_ZNSt6vectorIdSaIdEE6resizeEmRKd.exit23

_ZNSt6vectorIdSaIdEE6resizeEmRKd.exit23:          ; preds = %59, %61, %63, %65
  %66 = getelementptr inbounds i8, ptr %0, i64 392
  store double 0.000000e+00, ptr %66, align 8
  %67 = getelementptr inbounds i8, ptr %0, i64 320
  %68 = load i32, ptr %12, align 8
  %69 = mul nsw i32 %68, %2
  %70 = sext i32 %69 to i64
  store double 0.000000e+00, ptr %8, align 8
  %71 = getelementptr inbounds i8, ptr %0, i64 328
  %72 = load ptr, ptr %71, align 8
  %73 = load ptr, ptr %67, align 8
  %74 = ptrtoint ptr %72 to i64
  %75 = ptrtoint ptr %73 to i64
  %76 = sub i64 %74, %75
  %77 = ashr exact i64 %76, 3
  %78 = icmp ult i64 %77, %70
  br i1 %78, label %79, label %81

79:                                               ; preds = %_ZNSt6vectorIdSaIdEE6resizeEmRKd.exit23
  %80 = sub nsw i64 %70, %77
  call void @_ZNSt6vectorIdSaIdEE14_M_fill_insertEN9__gnu_cxx17__normal_iteratorIPdS1_EEmRKd(ptr noundef nonnull align 8 dereferenceable(24) %67, ptr %72, i64 noundef %80, ptr noundef nonnull align 8 dereferenceable(8) %8)
  %.pre30 = load i32, ptr %12, align 8
  %.pre34 = mul nsw i32 %.pre30, %2
  %.pre36 = sext i32 %.pre34 to i64
  br label %_ZNSt6vectorIdSaIdEE6resizeEmRKd.exit25

81:                                               ; preds = %_ZNSt6vectorIdSaIdEE6resizeEmRKd.exit23
  %82 = icmp ugt i64 %77, %70
  br i1 %82, label %83, label %_ZNSt6vectorIdSaIdEE6resizeEmRKd.exit25

83:                                               ; preds = %81
  %84 = getelementptr inbounds double, ptr %73, i64 %70
  %.not.i.i24 = icmp eq ptr %72, %84
  br i1 %.not.i.i24, label %_ZNSt6vectorIdSaIdEE6resizeEmRKd.exit25, label %85

85:                                               ; preds = %83
  store ptr %84, ptr %71, align 8
  br label %_ZNSt6vectorIdSaIdEE6resizeEmRKd.exit25

_ZNSt6vectorIdSaIdEE6resizeEmRKd.exit25:          ; preds = %79, %81, %83, %85
  %.pre-phi37 = phi i64 [ %.pre36, %79 ], [ %70, %81 ], [ %70, %83 ], [ %70, %85 ]
  %86 = getelementptr inbounds i8, ptr %0, i64 344
  store double 0.000000e+00, ptr %9, align 8
  %87 = getelementptr inbounds i8, ptr %0, i64 352
  %88 = load ptr, ptr %87, align 8
  %89 = load ptr, ptr %86, align 8
  %90 = ptrtoint ptr %88 to i64
  %91 = ptrtoint ptr %89 to i64
  %92 = sub i64 %90, %91
  %93 = ashr exact i64 %92, 3
  %94 = icmp ult i64 %93, %.pre-phi37
  br i1 %94, label %95, label %97

95:                                               ; preds = %_ZNSt6vectorIdSaIdEE6resizeEmRKd.exit25
  %96 = sub nsw i64 %.pre-phi37, %93
  call void @_ZNSt6vectorIdSaIdEE14_M_fill_insertEN9__gnu_cxx17__normal_iteratorIPdS1_EEmRKd(ptr noundef nonnull align 8 dereferenceable(24) %86, ptr %88, i64 noundef %96, ptr noundef nonnull align 8 dereferenceable(8) %9)
  br label %_ZNSt6vectorIdSaIdEE6resizeEmRKd.exit27

97:                                               ; preds = %_ZNSt6vectorIdSaIdEE6resizeEmRKd.exit25
  %98 = icmp ugt i64 %93, %.pre-phi37
  br i1 %98, label %99, label %_ZNSt6vectorIdSaIdEE6resizeEmRKd.exit27

99:                                               ; preds = %97
  %100 = getelementptr inbounds double, ptr %89, i64 %.pre-phi37
  %.not.i.i26 = icmp eq ptr %88, %100
  br i1 %.not.i.i26, label %_ZNSt6vectorIdSaIdEE6resizeEmRKd.exit27, label %101

101:                                              ; preds = %99
  store ptr %100, ptr %87, align 8
  br label %_ZNSt6vectorIdSaIdEE6resizeEmRKd.exit27

_ZNSt6vectorIdSaIdEE6resizeEmRKd.exit27:          ; preds = %95, %97, %99, %101
  ret void
}